; Function Attrs: nounwind uwtable
define hidden void @zim_SplDoublyLinkedList_bottom(ptr noundef readonly captures(none) %0, ptr noundef writeonly captures(none) %1) #0 {
  %3 = getelementptr inbounds nuw i8, ptr %0, i64 44
  %4 = load i32, ptr %3, align 4, !tbaa !4
  %.not = icmp eq i32 %4, 0
  br i1 %.not, label %.critedge, label %5, !prof !59

5:                                                ; preds = %2
  tail call void @zend_wrong_parameters_none_error() #13
  %6 = load ptr, ptr getelementptr inbounds nuw (i8, ptr @executor_globals, i64 960), align 8, !tbaa !7
  %7 = icmp ne ptr %6, null
  tail call void @llvm.assume(i1 %7)
  br label %44

.critedge:                                        ; preds = %2
  %8 = getelementptr inbounds nuw i8, ptr %0, i64 32
  %9 = load ptr, ptr %8, align 8, !tbaa !4
  %10 = getelementptr inbounds i8, ptr %9, i64 -72
  %11 = load ptr, ptr %10, align 8, !tbaa !43
  %.val = load ptr, ptr %11, align 8, !tbaa !57
  %12 = icmp eq ptr %.val, null
  %13 = getelementptr inbounds nuw i8, ptr %.val, i64 16
  br i1 %12, label %18, label %14

14:                                               ; preds = %.critedge
  %15 = getelementptr inbounds nuw i8, ptr %.val, i64 24
  %16 = load i8, ptr %15, align 8, !tbaa !4
  %17 = icmp eq i8 %16, 0
  br i1 %17, label %18, label %23

18:                                               ; preds = %14, %.critedge
  %19 = load ptr, ptr @spl_ce_RuntimeException, align 8, !tbaa !60
  %20 = tail call ptr @zend_throw_exception(ptr noundef %19, ptr noundef nonnull @.str.3, i64 noundef 0) #13
  %21 = load ptr, ptr getelementptr inbounds nuw (i8, ptr @executor_globals, i64 960), align 8, !tbaa !7
  %22 = icmp ne ptr %21, null
  tail call void @llvm.assume(i1 %22)
  br label %44

23:                                               ; preds = %14
  %24 = load i32, ptr %15, align 8
  %25 = and i32 %24, 65280
  %.not20 = icmp eq i32 %25, 0
  br i1 %.not20, label %39, label %26

26:                                               ; preds = %23
  %27 = and i32 %24, 255
  %28 = icmp eq i32 %27, 10
  br i1 %28, label %29, label %.sink.split, !prof !61

29:                                               ; preds = %26
  %30 = load ptr, ptr %13, align 8, !tbaa !4
  %31 = getelementptr inbounds nuw i8, ptr %30, i64 8
  %32 = getelementptr inbounds nuw i8, ptr %30, i64 16
  %33 = load i32, ptr %32, align 8
  %34 = and i32 %33, 65280
  %.not21 = icmp eq i32 %34, 0
  br i1 %.not21, label %39, label %.sink.split

.sink.split:                                      ; preds = %26, %29
  %.sink26 = phi i32 [ %33, %29 ], [ %24, %26 ]
  %.sink.in = phi ptr [ %31, %29 ], [ %13, %26 ]
  %35 = and i32 %.sink26, 65280
  %36 = icmp ne i32 %35, 0
  tail call void @llvm.assume(i1 %36)
  %.sink = load ptr, ptr %.sink.in, align 8, !tbaa !4
  %37 = load i32, ptr %.sink, align 4, !tbaa !56
  %38 = add i32 %37, 1
  store i32 %38, ptr %.sink, align 4, !tbaa !56
  br label %39

39:                                               ; preds = %.sink.split, %23, %29
  %.0 = phi ptr [ %31, %29 ], [ %13, %23 ], [ %.sink.in, %.sink.split ]
  %40 = load ptr, ptr %.0, align 8, !tbaa !4
  %41 = getelementptr inbounds nuw i8, ptr %.0, i64 8
  %42 = load i32, ptr %41, align 8, !tbaa !4
  store ptr %40, ptr %1, align 8, !tbaa !4
  %43 = getelementptr inbounds nuw i8, ptr %1, i64 8
  store i32 %42, ptr %43, align 8, !tbaa !4
  br label %44

44:                                               ; preds = %39, %18, %5
  ret void
}